target datalayout = "e-m:e-p270:32:32-p271:32:32-p272:64:64-i64:64-i128:128-f80:128-n8:16:32:64-S128"
target triple = "x86_64-pc-linux-gnu"

%struct.Vec_Ptr_t_ = type { i32, i32, ptr }
%struct.Abc_ManRes_t_ = type { i32, i32, ptr, i32, i32, i32, i32, ptr, i32, i32, ptr, ptr, ptr, ptr, ptr, ptr, ptr, ptr, ptr, ptr, ptr, i64, i64, i64, i64, i64, i64, i64, i64, i64, i64, i64, i64, i32, i32, i32, i32, i32, i32, i32, i32, i32, i32, i32, i32, i32, i32, i32, i32 }

; Function Attrs: inlinehint nounwind uwtable
define internal void @Vec_PtrFree(ptr noundef %0) #3 {
  %2 = alloca ptr, align 8
  store ptr %0, ptr %2, align 8, !tbaa !72
  %3 = load ptr, ptr %2, align 8, !tbaa !72
  %4 = getelementptr inbounds nuw %struct.Vec_Ptr_t_, ptr %3, i32 0, i32 2
  %5 = load ptr, ptr %4, align 8, !tbaa !87
  %6 = icmp ne ptr %5, null
  br i1 %6, label %7, label %13

7:                                                ; preds = %1
  %8 = load ptr, ptr %2, align 8, !tbaa !72
  %9 = getelementptr inbounds nuw %struct.Vec_Ptr_t_, ptr %8, i32 0, i32 2
  %10 = load ptr, ptr %9, align 8, !tbaa !87
  call void @free(ptr noundef %10) #12
  %11 = load ptr, ptr %2, align 8, !tbaa !72
  %12 = getelementptr inbounds nuw %struct.Vec_Ptr_t_, ptr %11, i32 0, i32 2
  store ptr null, ptr %12, align 8, !tbaa !87
  br label %14

13:                                               ; preds = %1
  br label %14

14:                                               ; preds = %13, %7
  %15 = load ptr, ptr %2, align 8, !tbaa !72
  %16 = icmp ne ptr %15, null
  br i1 %16, label %17, label %19

17:                                               ; preds = %14
  %18 = load ptr, ptr %2, align 8, !tbaa !72
  call void @free(ptr noundef %18) #12
  store ptr null, ptr %2, align 8, !tbaa !72
  br label %20

19:                                               ; preds = %14
  br label %20

20:                                               ; preds = %19, %17
  ret void
}

; Function Attrs: nounwind uwtable
define internal void @Abc_ManResubStop(ptr noundef %0) #0 {
  %2 = alloca ptr, align 8
  store ptr %0, ptr %2, align 8, !tbaa !146
  %3 = load ptr, ptr %2, align 8, !tbaa !146
  %4 = getelementptr inbounds nuw %struct.Abc_ManRes_t_, ptr %3, i32 0, i32 7
  %5 = load ptr, ptr %4, align 8, !tbaa !167
  call void @Vec_PtrFree(ptr noundef %5)
  %6 = load ptr, ptr %2, align 8, !tbaa !146
  %7 = getelementptr inbounds nuw %struct.Abc_ManRes_t_, ptr %6, i32 0, i32 10
  %8 = load ptr, ptr %7, align 8, !tbaa !171
  call void @Vec_PtrFree(ptr noundef %8)
  %9 = load ptr, ptr %2, align 8, !tbaa !146
  %10 = getelementptr inbounds nuw %struct.Abc_ManRes_t_, ptr %9, i32 0, i32 13
  %11 = load ptr, ptr %10, align 8, !tbaa !175
  call void @Vec_PtrFree(ptr noundef %11)
  %12 = load ptr, ptr %2, align 8, !tbaa !146
  %13 = getelementptr inbounds nuw %struct.Abc_ManRes_t_, ptr %12, i32 0, i32 14
  %14 = load ptr, ptr %13, align 8, !tbaa !176
  call void @Vec_PtrFree(ptr noundef %14)
  %15 = load ptr, ptr %2, align 8, !tbaa !146
  %16 = getelementptr inbounds nuw %struct.Abc_ManRes_t_, ptr %15, i32 0, i32 15
  %17 = load ptr, ptr %16, align 8, !tbaa !177
  call void @Vec_PtrFree(ptr noundef %17)
  %18 = load ptr, ptr %2, align 8, !tbaa !146
  %19 = getelementptr inbounds nuw %struct.Abc_ManRes_t_, ptr %18, i32 0, i32 16
  %20 = load ptr, ptr %19, align 8, !tbaa !178
  call void @Vec_PtrFree(ptr noundef %20)
  %21 = load ptr, ptr %2, align 8, !tbaa !146
  %22 = getelementptr inbounds nuw %struct.Abc_ManRes_t_, ptr %21, i32 0, i32 17
  %23 = load ptr, ptr %22, align 8, !tbaa !179
  call void @Vec_PtrFree(ptr noundef %23)
  %24 = load ptr, ptr %2, align 8, !tbaa !146
  %25 = getelementptr inbounds nuw %struct.Abc_ManRes_t_, ptr %24, i32 0, i32 18
  %26 = load ptr, ptr %25, align 8, !tbaa !180
  call void @Vec_PtrFree(ptr noundef %26)
  %27 = load ptr, ptr %2, align 8, !tbaa !146
  %28 = getelementptr inbounds nuw %struct.Abc_ManRes_t_, ptr %27, i32 0, i32 19
  %29 = load ptr, ptr %28, align 8, !tbaa !181
  call void @Vec_PtrFree(ptr noundef %29)
  %30 = load ptr, ptr %2, align 8, !tbaa !146
  %31 = getelementptr inbounds nuw %struct.Abc_ManRes_t_, ptr %30, i32 0, i32 20
  %32 = load ptr, ptr %31, align 8, !tbaa !182
  call void @Vec_PtrFree(ptr noundef %32)
  %33 = load ptr, ptr %2, align 8, !tbaa !146
  %34 = getelementptr inbounds nuw %struct.Abc_ManRes_t_, ptr %33, i32 0, i32 11
  %35 = load ptr, ptr %34, align 8, !tbaa !170
  %36 = icmp ne ptr %35, null
  br i1 %36, label %37, label %43

37:                                               ; preds = %1
  %38 = load ptr, ptr %2, align 8, !tbaa !146
  %39 = getelementptr inbounds nuw %struct.Abc_ManRes_t_, ptr %38, i32 0, i32 11
  %40 = load ptr, ptr %39, align 8, !tbaa !170
  call void @free(ptr noundef %40) #12
  %41 = load ptr, ptr %2, align 8, !tbaa !146
  %42 = getelementptr inbounds nuw %struct.Abc_ManRes_t_, ptr %41, i32 0, i32 11
  store ptr null, ptr %42, align 8, !tbaa !170
  br label %44

43:                                               ; preds = %1
  br label %44

44:                                               ; preds = %43, %37
  %45 = load ptr, ptr %2, align 8, !tbaa !146
  %46 = icmp ne ptr %45, null
  br i1 %46, label %47, label %49

47:                                               ; preds = %44
  %48 = load ptr, ptr %2, align 8, !tbaa !146
  call void @free(ptr noundef %48) #12
  store ptr null, ptr %2, align 8, !tbaa !146
  br label %50

49:                                               ; preds = %44
  br label %50

50:                                               ; preds = %49, %47
  ret void
}