; Function Attrs: mustprogress nounwind willreturn uwtable
define internal fastcc void @Abc_ManResubStop(ptr noundef captures(none) %0) unnamed_addr #11 {
  %2 = getelementptr inbounds nuw i8, ptr %0, i64 32
  %3 = load ptr, ptr %2, align 8, !tbaa !147
  %4 = getelementptr inbounds nuw i8, ptr %3, i64 8
  %5 = load ptr, ptr %4, align 8, !tbaa !46
  %.not.i = icmp eq ptr %5, null
  br i1 %.not.i, label %Vec_PtrFree.exit, label %6

6:                                                ; preds = %1
  tail call void @free(ptr noundef nonnull %5) #22
  br label %Vec_PtrFree.exit

Vec_PtrFree.exit:                                 ; preds = %1, %6
  tail call void @free(ptr noundef nonnull %3) #22
  %7 = getelementptr inbounds nuw i8, ptr %0, i64 48
  %8 = load ptr, ptr %7, align 8, !tbaa !151
  %9 = getelementptr inbounds nuw i8, ptr %8, i64 8
  %10 = load ptr, ptr %9, align 8, !tbaa !46
  %.not.i17 = icmp eq ptr %10, null
  br i1 %.not.i17, label %Vec_PtrFree.exit18, label %11

11:                                               ; preds = %Vec_PtrFree.exit
  tail call void @free(ptr noundef nonnull %10) #22
  br label %Vec_PtrFree.exit18

Vec_PtrFree.exit18:                               ; preds = %Vec_PtrFree.exit, %11
  tail call void @free(ptr noundef nonnull %8) #22
  %12 = getelementptr inbounds nuw i8, ptr %0, i64 72
  %13 = load ptr, ptr %12, align 8, !tbaa !155
  %14 = getelementptr inbounds nuw i8, ptr %13, i64 8
  %15 = load ptr, ptr %14, align 8, !tbaa !46
  %.not.i19 = icmp eq ptr %15, null
  br i1 %.not.i19, label %Vec_PtrFree.exit20, label %16

16:                                               ; preds = %Vec_PtrFree.exit18
  tail call void @free(ptr noundef nonnull %15) #22
  br label %Vec_PtrFree.exit20

Vec_PtrFree.exit20:                               ; preds = %Vec_PtrFree.exit18, %16
  tail call void @free(ptr noundef nonnull %13) #22
  %17 = getelementptr inbounds nuw i8, ptr %0, i64 80
  %18 = load ptr, ptr %17, align 8, !tbaa !156
  %19 = getelementptr inbounds nuw i8, ptr %18, i64 8
  %20 = load ptr, ptr %19, align 8, !tbaa !46
  %.not.i21 = icmp eq ptr %20, null
  br i1 %.not.i21, label %Vec_PtrFree.exit22, label %21

21:                                               ; preds = %Vec_PtrFree.exit20
  tail call void @free(ptr noundef nonnull %20) #22
  br label %Vec_PtrFree.exit22

Vec_PtrFree.exit22:                               ; preds = %Vec_PtrFree.exit20, %21
  tail call void @free(ptr noundef nonnull %18) #22
  %22 = getelementptr inbounds nuw i8, ptr %0, i64 88
  %23 = load ptr, ptr %22, align 8, !tbaa !157
  %24 = getelementptr inbounds nuw i8, ptr %23, i64 8
  %25 = load ptr, ptr %24, align 8, !tbaa !46
  %.not.i23 = icmp eq ptr %25, null
  br i1 %.not.i23, label %Vec_PtrFree.exit24, label %26

26:                                               ; preds = %Vec_PtrFree.exit22
  tail call void @free(ptr noundef nonnull %25) #22
  br label %Vec_PtrFree.exit24

Vec_PtrFree.exit24:                               ; preds = %Vec_PtrFree.exit22, %26
  tail call void @free(ptr noundef nonnull %23) #22
  %27 = getelementptr inbounds nuw i8, ptr %0, i64 96
  %28 = load ptr, ptr %27, align 8, !tbaa !158
  %29 = getelementptr inbounds nuw i8, ptr %28, i64 8
  %30 = load ptr, ptr %29, align 8, !tbaa !46
  %.not.i25 = icmp eq ptr %30, null
  br i1 %.not.i25, label %Vec_PtrFree.exit26, label %31

31:                                               ; preds = %Vec_PtrFree.exit24
  tail call void @free(ptr noundef nonnull %30) #22
  br label %Vec_PtrFree.exit26

Vec_PtrFree.exit26:                               ; preds = %Vec_PtrFree.exit24, %31
  tail call void @free(ptr noundef nonnull %28) #22
  %32 = getelementptr inbounds nuw i8, ptr %0, i64 104
  %33 = load ptr, ptr %32, align 8, !tbaa !159
  %34 = getelementptr inbounds nuw i8, ptr %33, i64 8
  %35 = load ptr, ptr %34, align 8, !tbaa !46
  %.not.i27 = icmp eq ptr %35, null
  br i1 %.not.i27, label %Vec_PtrFree.exit28, label %36

36:                                               ; preds = %Vec_PtrFree.exit26
  tail call void @free(ptr noundef nonnull %35) #22
  br label %Vec_PtrFree.exit28

Vec_PtrFree.exit28:                               ; preds = %Vec_PtrFree.exit26, %36
  tail call void @free(ptr noundef nonnull %33) #22
  %37 = getelementptr inbounds nuw i8, ptr %0, i64 112
  %38 = load ptr, ptr %37, align 8, !tbaa !160
  %39 = getelementptr inbounds nuw i8, ptr %38, i64 8
  %40 = load ptr, ptr %39, align 8, !tbaa !46
  %.not.i29 = icmp eq ptr %40, null
  br i1 %.not.i29, label %Vec_PtrFree.exit30, label %41

41:                                               ; preds = %Vec_PtrFree.exit28
  tail call void @free(ptr noundef nonnull %40) #22
  br label %Vec_PtrFree.exit30

Vec_PtrFree.exit30:                               ; preds = %Vec_PtrFree.exit28, %41
  tail call void @free(ptr noundef nonnull %38) #22
  %42 = getelementptr inbounds nuw i8, ptr %0, i64 120
  %43 = load ptr, ptr %42, align 8, !tbaa !161
  %44 = getelementptr inbounds nuw i8, ptr %43, i64 8
  %45 = load ptr, ptr %44, align 8, !tbaa !46
  %.not.i31 = icmp eq ptr %45, null
  br i1 %.not.i31, label %Vec_PtrFree.exit32, label %46

46:                                               ; preds = %Vec_PtrFree.exit30
  tail call void @free(ptr noundef nonnull %45) #22
  br label %Vec_PtrFree.exit32

Vec_PtrFree.exit32:                               ; preds = %Vec_PtrFree.exit30, %46
  tail call void @free(ptr noundef nonnull %43) #22
  %47 = getelementptr inbounds nuw i8, ptr %0, i64 128
  %48 = load ptr, ptr %47, align 8, !tbaa !162
  %49 = getelementptr inbounds nuw i8, ptr %48, i64 8
  %50 = load ptr, ptr %49, align 8, !tbaa !46
  %.not.i33 = icmp eq ptr %50, null
  br i1 %.not.i33, label %Vec_PtrFree.exit34, label %51

51:                                               ; preds = %Vec_PtrFree.exit32
  tail call void @free(ptr noundef nonnull %50) #22
  br label %Vec_PtrFree.exit34

Vec_PtrFree.exit34:                               ; preds = %Vec_PtrFree.exit32, %51
  tail call void @free(ptr noundef nonnull %48) #22
  %52 = getelementptr inbounds nuw i8, ptr %0, i64 56
  %53 = load ptr, ptr %52, align 8, !tbaa !150
  %.not = icmp eq ptr %53, null
  br i1 %.not, label %55, label %54

54:                                               ; preds = %Vec_PtrFree.exit34
  tail call void @free(ptr noundef nonnull %53) #22
  br label %55

55:                                               ; preds = %Vec_PtrFree.exit34, %54
  tail call void @free(ptr noundef nonnull %0) #22
  ret void
}